; Function Attrs: mustprogress uwtable
define hidden noundef range(i32 4, 6) i32 @_ZN15bv2int_rewriter6mk_mulEjPKP4exprR7obj_refIS0_11ast_managerE(ptr noundef nonnull align 8 dereferenceable(56) %0, i32 noundef %1, ptr noundef readonly captures(none) %2, ptr noundef nonnull align 8 captures(none) dereferenceable(16) %3) local_unnamed_addr #3 align 2 {
  %5 = load ptr, ptr %2, align 8, !tbaa !66
  %.not.i = icmp eq ptr %5, null
  br i1 %.not.i, label %9, label %_ZN11ast_manager7inc_refEP3ast.exit.i

_ZN11ast_manager7inc_refEP3ast.exit.i:            ; preds = %4
  %6 = getelementptr inbounds nuw i8, ptr %5, i64 8
  %7 = load i32, ptr %6, align 4, !tbaa !87
  %8 = add i32 %7, 1
  store i32 %8, ptr %6, align 4, !tbaa !87
  br label %9

9:                                                ; preds = %_ZN11ast_manager7inc_refEP3ast.exit.i, %4
  %10 = load ptr, ptr %3, align 8, !tbaa !110
  %.not.i4.i = icmp eq ptr %10, null
  br i1 %.not.i4.i, label %_ZN7obj_refI4expr11ast_managerEaSEPS0_.exit, label %11

11:                                               ; preds = %9
  %12 = getelementptr inbounds nuw i8, ptr %3, i64 8
  %13 = load ptr, ptr %12, align 8, !tbaa !112
  %14 = getelementptr inbounds nuw i8, ptr %10, i64 8
  %15 = load i32, ptr %14, align 4, !tbaa !87
  %16 = add i32 %15, -1
  store i32 %16, ptr %14, align 4, !tbaa !87
  %17 = icmp eq i32 %16, 0
  br i1 %17, label %18, label %_ZN7obj_refI4expr11ast_managerEaSEPS0_.exit

18:                                               ; preds = %11
  tail call void @_ZN11ast_manager11delete_nodeEP3ast(ptr noundef nonnull align 8 dereferenceable(976) %13, ptr noundef nonnull %10)
  br label %_ZN7obj_refI4expr11ast_managerEaSEPS0_.exit

_ZN7obj_refI4expr11ast_managerEaSEPS0_.exit:      ; preds = %9, %11, %18
  store ptr %5, ptr %3, align 8, !tbaa !110
  %19 = icmp ugt i32 %1, 1
  br i1 %19, label %.lr.ph.preheader, label %._crit_edge

.lr.ph.preheader:                                 ; preds = %_ZN7obj_refI4expr11ast_managerEaSEPS0_.exit
  %20 = zext i32 %1 to i64
  br label %.lr.ph

._crit_edge:                                      ; preds = %.lr.ph, %_ZN7obj_refI4expr11ast_managerEaSEPS0_.exit
  %.011.lcssa = phi i32 [ 4, %_ZN7obj_refI4expr11ast_managerEaSEPS0_.exit ], [ %24, %.lr.ph ]
  ret i32 %.011.lcssa

.lr.ph:                                           ; preds = %.lr.ph.preheader, %.lr.ph
  %indvars.iv = phi i64 [ 1, %.lr.ph.preheader ], [ %indvars.iv.next, %.lr.ph ]
  %21 = load ptr, ptr %3, align 8, !tbaa !110
  %22 = getelementptr inbounds nuw ptr, ptr %2, i64 %indvars.iv
  %23 = load ptr, ptr %22, align 8, !tbaa !66
  %24 = tail call noundef i32 @_ZN15bv2int_rewriter6mk_mulEP4exprS1_R7obj_refIS0_11ast_managerE(ptr noundef nonnull align 8 dereferenceable(56) %0, ptr noundef %21, ptr noundef %23, ptr noundef nonnull align 8 dereferenceable(16) %3)
  %indvars.iv.next = add nuw nsw i64 %indvars.iv, 1
  %25 = icmp eq i32 %24, 4
  %26 = icmp samesign ult i64 %indvars.iv.next, %20
  %27 = select i1 %25, i1 %26, i1 false
  br i1 %27, label %.lr.ph, label %._crit_edge, !llvm.loop !114
}